; Function Attrs: nounwind uwtable
define void @Java_sun_nio_fs_UnixNativeDispatcher_symlink0(ptr noundef %0, ptr nocapture noundef readnone %1, i64 noundef %2, i64 noundef %3) local_unnamed_addr #0 {
  %5 = inttoptr i64 %2 to ptr
  %6 = inttoptr i64 %3 to ptr
  %7 = tail call i32 @symlink(ptr noundef %5, ptr noundef %6) #11
  %8 = icmp eq i32 %7, -1
  br i1 %8, label %9, label %throwUnixException.exit

9:                                                ; preds = %4
  %10 = tail call ptr @__errno_location() #12
  %11 = load i32, ptr %10, align 4
  %12 = tail call ptr (ptr, ptr, ptr, ...) @JNU_NewObjectByName(ptr noundef %0, ptr noundef nonnull @.str.46, ptr noundef nonnull @.str.47, i32 noundef %11) #11
  %.not.i = icmp eq ptr %12, null
  br i1 %.not.i, label %throwUnixException.exit, label %13

13:                                               ; preds = %9
  %14 = load ptr, ptr %0, align 8
  %15 = getelementptr inbounds i8, ptr %14, i64 104
  %16 = load ptr, ptr %15, align 8
  %17 = tail call i32 %16(ptr noundef nonnull %0, ptr noundef nonnull %12) #11
  br label %throwUnixException.exit

throwUnixException.exit:                          ; preds = %13, %9, %4
  ret void
}